target datalayout = "e-m:e-p270:32:32-p271:32:32-p272:64:64-i64:64-i128:128-f80:128-n8:16:32:64-S128"
target triple = "x86_64-pc-linux-gnu"

%struct._zend_array = type { %struct._zend_refcounted_h, %union.anon.1, i32, %union.anon.2, i32, i32, i32, i32, i64, ptr }
%struct._zend_refcounted_h = type { i32, %union.anon.0 }
%union.anon.0 = type { i32 }
%union.anon.1 = type { i32 }
%union.anon.2 = type { ptr }
%struct._zend_string = type { %struct._zend_refcounted_h, i64, i64, [1 x i8] }
%struct._zend_class_entry = type { i8, ptr, %union.anon, i32, i32, i32, i32, ptr, ptr, ptr, %struct._zend_array, %struct._zend_array, %struct._zend_array, ptr, ptr, ptr, ptr, ptr, ptr, ptr, ptr, ptr, ptr, ptr, ptr, ptr, ptr, ptr, ptr, ptr, ptr, ptr, %union.anon.3, ptr, ptr, ptr, ptr, i32, i32, i32, i32, %union.anon.4, ptr, ptr, ptr, ptr, i32, ptr, ptr, %union.anon.5 }
%union.anon = type { ptr }
%union.anon.3 = type { ptr }
%union.anon.4 = type { ptr }
%union.anon.5 = type { %struct.anon.6 }
%struct.anon.6 = type { ptr, i32, i32 }

@.str.72 = private unnamed_addr constant [39 x i8] c"%s %s could not implement interface %s\00", align 1

; Function Attrs: alwaysinline nounwind uwtable
define internal ptr @zend_get_object_type_uc(ptr noundef %0) #3 {
  %2 = alloca ptr, align 8
  store ptr %0, ptr %2, align 8, !tbaa !8
  %3 = load ptr, ptr %2, align 8, !tbaa !8
  %4 = call ptr @zend_get_object_type_case(ptr noundef %3, i1 noundef zeroext true)
  ret ptr %4
}

; Function Attrs: inlinehint nounwind uwtable
define internal void @do_implement_interface(ptr noundef %0, ptr noundef %1) #16 {
  %3 = alloca ptr, align 8
  %4 = alloca ptr, align 8
  store ptr %0, ptr %3, align 8, !tbaa !8
  store ptr %1, ptr %4, align 8, !tbaa !8
  %5 = load ptr, ptr %3, align 8, !tbaa !8
  %6 = getelementptr inbounds nuw %struct._zend_class_entry, ptr %5, i32 0, i32 4
  %7 = load i32, ptr %6, align 4, !tbaa !80
  %8 = and i32 %7, 1
  %9 = icmp ne i32 %8, 0
  br i1 %9, label %36, label %10

10:                                               ; preds = %2
  %11 = load ptr, ptr %4, align 8, !tbaa !8
  %12 = getelementptr inbounds nuw %struct._zend_class_entry, ptr %11, i32 0, i32 32
  %13 = load ptr, ptr %12, align 8, !tbaa !46
  %14 = icmp ne ptr %13, null
  br i1 %14, label %15, label %36

15:                                               ; preds = %10
  %16 = load ptr, ptr %4, align 8, !tbaa !8
  %17 = getelementptr inbounds nuw %struct._zend_class_entry, ptr %16, i32 0, i32 32
  %18 = load ptr, ptr %17, align 8, !tbaa !46
  %19 = load ptr, ptr %4, align 8, !tbaa !8
  %20 = load ptr, ptr %3, align 8, !tbaa !8
  %21 = call i32 %18(ptr noundef %19, ptr noundef %20)
  %22 = icmp eq i32 %21, -1
  br i1 %22, label %23, label %36

23:                                               ; preds = %15
  %24 = load ptr, ptr %3, align 8, !tbaa !8
  %25 = call ptr @zend_get_object_type_uc(ptr noundef %24)
  %26 = load ptr, ptr %3, align 8, !tbaa !8
  %27 = getelementptr inbounds nuw %struct._zend_class_entry, ptr %26, i32 0, i32 1
  %28 = load ptr, ptr %27, align 8, !tbaa !70
  %29 = getelementptr inbounds nuw %struct._zend_string, ptr %28, i32 0, i32 3
  %30 = getelementptr inbounds [1 x i8], ptr %29, i64 0, i64 0
  %31 = load ptr, ptr %4, align 8, !tbaa !8
  %32 = getelementptr inbounds nuw %struct._zend_class_entry, ptr %31, i32 0, i32 1
  %33 = load ptr, ptr %32, align 8, !tbaa !70
  %34 = getelementptr inbounds nuw %struct._zend_string, ptr %33, i32 0, i32 3
  %35 = getelementptr inbounds [1 x i8], ptr %34, i64 0, i64 0
  call void (i32, ptr, ...) @zend_error_noreturn(i32 noundef 16, ptr noundef @.str.72, ptr noundef %25, ptr noundef %30, ptr noundef %35) #21
  unreachable

36:                                               ; preds = %15, %10, %2
  %37 = load ptr, ptr %3, align 8, !tbaa !8
  %38 = load ptr, ptr %4, align 8, !tbaa !8
  %39 = icmp ne ptr %37, %38
  call void @llvm.assume(i1 %39)
  ret void
}

; Function Attrs: nounwind uwtable
define internal void @zend_do_inherit_interfaces(ptr noundef %0, ptr noundef %1) #0 {
  %3 = alloca ptr, align 8
  %4 = alloca ptr, align 8
  %5 = alloca i32, align 4
  %6 = alloca i32, align 4
  %7 = alloca i32, align 4
  %8 = alloca ptr, align 8
  store ptr %0, ptr %3, align 8, !tbaa !8
  store ptr %1, ptr %4, align 8, !tbaa !8
  call void @llvm.lifetime.start.p0(i64 4, ptr %5) #19
  call void @llvm.lifetime.start.p0(i64 4, ptr %6) #19
  call void @llvm.lifetime.start.p0(i64 4, ptr %7) #19
  %9 = load ptr, ptr %4, align 8, !tbaa !8
  %10 = getelementptr inbounds nuw %struct._zend_class_entry, ptr %9, i32 0, i32 37
  %11 = load i32, ptr %10, align 8, !tbaa !100
  store i32 %11, ptr %7, align 4, !tbaa !4
  call void @llvm.lifetime.start.p0(i64 8, ptr %8) #19
  %12 = load ptr, ptr %3, align 8, !tbaa !8
  %13 = getelementptr inbounds nuw %struct._zend_class_entry, ptr %12, i32 0, i32 37
  %14 = load i32, ptr %13, align 8, !tbaa !100
  store i32 %14, ptr %6, align 4, !tbaa !4
  %15 = load ptr, ptr %3, align 8, !tbaa !8
  %16 = getelementptr inbounds nuw %struct._zend_class_entry, ptr %15, i32 0, i32 0
  %17 = load i8, ptr %16, align 8, !tbaa !44
  %18 = sext i8 %17 to i32
  %19 = icmp eq i32 %18, 1
  br i1 %19, label %20, label %32

20:                                               ; preds = %2
  %21 = load ptr, ptr %3, align 8, !tbaa !8
  %22 = getelementptr inbounds nuw %struct._zend_class_entry, ptr %21, i32 0, i32 41
  %23 = load ptr, ptr %22, align 8, !tbaa !46
  %24 = load i32, ptr %6, align 4, !tbaa !4
  %25 = load i32, ptr %7, align 4, !tbaa !4
  %26 = add i32 %24, %25
  %27 = zext i32 %26 to i64
  %28 = mul i64 8, %27
  %29 = call ptr @realloc(ptr noundef %23, i64 noundef %28) #22
  %30 = load ptr, ptr %3, align 8, !tbaa !8
  %31 = getelementptr inbounds nuw %struct._zend_class_entry, ptr %30, i32 0, i32 41
  store ptr %29, ptr %31, align 8, !tbaa !46
  br label %44

32:                                               ; preds = %2
  %33 = load ptr, ptr %3, align 8, !tbaa !8
  %34 = getelementptr inbounds nuw %struct._zend_class_entry, ptr %33, i32 0, i32 41
  %35 = load ptr, ptr %34, align 8, !tbaa !46
  %36 = load i32, ptr %6, align 4, !tbaa !4
  %37 = load i32, ptr %7, align 4, !tbaa !4
  %38 = add i32 %36, %37
  %39 = zext i32 %38 to i64
  %40 = mul i64 8, %39
  %41 = call ptr @_erealloc(ptr noundef %35, i64 noundef %40) #23
  %42 = load ptr, ptr %3, align 8, !tbaa !8
  %43 = getelementptr inbounds nuw %struct._zend_class_entry, ptr %42, i32 0, i32 41
  store ptr %41, ptr %43, align 8, !tbaa !46
  br label %44

44:                                               ; preds = %32, %20
  br label %45

45:                                               ; preds = %91, %44
  %46 = load i32, ptr %7, align 4, !tbaa !4
  %47 = add i32 %46, -1
  store i32 %47, ptr %7, align 4, !tbaa !4
  %48 = icmp ne i32 %46, 0
  br i1 %48, label %49, label %92

49:                                               ; preds = %45
  %50 = load ptr, ptr %4, align 8, !tbaa !8
  %51 = getelementptr inbounds nuw %struct._zend_class_entry, ptr %50, i32 0, i32 41
  %52 = load ptr, ptr %51, align 8, !tbaa !46
  %53 = load i32, ptr %7, align 4, !tbaa !4
  %54 = zext i32 %53 to i64
  %55 = getelementptr inbounds nuw ptr, ptr %52, i64 %54
  %56 = load ptr, ptr %55, align 8, !tbaa !8
  store ptr %56, ptr %8, align 8, !tbaa !8
  store i32 0, ptr %5, align 4, !tbaa !4
  br label %57

57:                                               ; preds = %73, %49
  %58 = load i32, ptr %5, align 4, !tbaa !4
  %59 = load i32, ptr %6, align 4, !tbaa !4
  %60 = icmp ult i32 %58, %59
  br i1 %60, label %61, label %76

61:                                               ; preds = %57
  %62 = load ptr, ptr %3, align 8, !tbaa !8
  %63 = getelementptr inbounds nuw %struct._zend_class_entry, ptr %62, i32 0, i32 41
  %64 = load ptr, ptr %63, align 8, !tbaa !46
  %65 = load i32, ptr %5, align 4, !tbaa !4
  %66 = zext i32 %65 to i64
  %67 = getelementptr inbounds nuw ptr, ptr %64, i64 %66
  %68 = load ptr, ptr %67, align 8, !tbaa !8
  %69 = load ptr, ptr %8, align 8, !tbaa !8
  %70 = icmp eq ptr %68, %69
  br i1 %70, label %71, label %72

71:                                               ; preds = %61
  br label %76

72:                                               ; preds = %61
  br label %73

73:                                               ; preds = %72
  %74 = load i32, ptr %5, align 4, !tbaa !4
  %75 = add i32 %74, 1
  store i32 %75, ptr %5, align 4, !tbaa !4
  br label %57

76:                                               ; preds = %71, %57
  %77 = load i32, ptr %5, align 4, !tbaa !4
  %78 = load i32, ptr %6, align 4, !tbaa !4
  %79 = icmp eq i32 %77, %78
  br i1 %79, label %80, label %91

80:                                               ; preds = %76
  %81 = load ptr, ptr %8, align 8, !tbaa !8
  %82 = load ptr, ptr %3, align 8, !tbaa !8
  %83 = getelementptr inbounds nuw %struct._zend_class_entry, ptr %82, i32 0, i32 41
  %84 = load ptr, ptr %83, align 8, !tbaa !46
  %85 = load ptr, ptr %3, align 8, !tbaa !8
  %86 = getelementptr inbounds nuw %struct._zend_class_entry, ptr %85, i32 0, i32 37
  %87 = load i32, ptr %86, align 8, !tbaa !100
  %88 = add i32 %87, 1
  store i32 %88, ptr %86, align 8, !tbaa !100
  %89 = zext i32 %87 to i64
  %90 = getelementptr inbounds nuw ptr, ptr %84, i64 %89
  store ptr %81, ptr %90, align 8, !tbaa !8
  br label %91

91:                                               ; preds = %80, %76
  br label %45

92:                                               ; preds = %45
  %93 = load ptr, ptr %3, align 8, !tbaa !8
  %94 = getelementptr inbounds nuw %struct._zend_class_entry, ptr %93, i32 0, i32 4
  %95 = load i32, ptr %94, align 4, !tbaa !80
  %96 = or i32 %95, 262144
  store i32 %96, ptr %94, align 4, !tbaa !80
  br label %97

97:                                               ; preds = %103, %92
  %98 = load i32, ptr %6, align 4, !tbaa !4
  %99 = load ptr, ptr %3, align 8, !tbaa !8
  %100 = getelementptr inbounds nuw %struct._zend_class_entry, ptr %99, i32 0, i32 37
  %101 = load i32, ptr %100, align 8, !tbaa !100
  %102 = icmp ult i32 %98, %101
  br i1 %102, label %103, label %113

103:                                              ; preds = %97
  %104 = load ptr, ptr %3, align 8, !tbaa !8
  %105 = load ptr, ptr %3, align 8, !tbaa !8
  %106 = getelementptr inbounds nuw %struct._zend_class_entry, ptr %105, i32 0, i32 41
  %107 = load ptr, ptr %106, align 8, !tbaa !46
  %108 = load i32, ptr %6, align 4, !tbaa !4
  %109 = add i32 %108, 1
  store i32 %109, ptr %6, align 4, !tbaa !4
  %110 = zext i32 %108 to i64
  %111 = getelementptr inbounds nuw ptr, ptr %107, i64 %110
  %112 = load ptr, ptr %111, align 8, !tbaa !8
  call void @do_implement_interface(ptr noundef %104, ptr noundef %112)
  br label %97

113:                                              ; preds = %97
  call void @llvm.lifetime.end.p0(i64 8, ptr %8) #19
  call void @llvm.lifetime.end.p0(i64 4, ptr %7) #19
  call void @llvm.lifetime.end.p0(i64 4, ptr %6) #19
  call void @llvm.lifetime.end.p0(i64 4, ptr %5) #19
  ret void
}