; Function Attrs: nounwind uwtable
define internal fastcc void @zend_do_inherit_interfaces(ptr noundef %0, ptr noundef readonly captures(none) %1) unnamed_addr #2 {
  %3 = getelementptr inbounds nuw i8, ptr %1, i64 424
  %4 = load i32, ptr %3, align 8, !tbaa !148
  %5 = getelementptr inbounds nuw i8, ptr %0, i64 424
  %6 = load i32, ptr %5, align 8, !tbaa !148
  %7 = load i8, ptr %0, align 8, !tbaa !86
  %8 = icmp eq i8 %7, 1
  %9 = getelementptr inbounds nuw i8, ptr %0, i64 440
  %10 = load ptr, ptr %9, align 8, !tbaa !21
  %11 = add i32 %6, %4
  %12 = zext i32 %11 to i64
  %13 = shl nuw nsw i64 %12, 3
  br i1 %8, label %14, label %16

14:                                               ; preds = %2
  %15 = tail call ptr @realloc(ptr noundef %10, i64 noundef %13) #21
  br label %18

16:                                               ; preds = %2
  %17 = tail call ptr @_erealloc(ptr noundef %10, i64 noundef %13) #21
  br label %18

18:                                               ; preds = %16, %14
  %.sink = phi ptr [ %17, %16 ], [ %15, %14 ]
  store ptr %.sink, ptr %9, align 8, !tbaa !21
  %.not35 = icmp eq i32 %4, 0
  br i1 %.not35, label %._crit_edge38, label %.lr.ph37

.lr.ph37:                                         ; preds = %18
  %19 = add i32 %4, -1
  %20 = getelementptr inbounds nuw i8, ptr %1, i64 440
  %21 = getelementptr inbounds nuw i8, ptr %0, i64 440
  %.not = icmp eq i32 %6, 0
  %22 = zext i32 %19 to i64
  br i1 %.not, label %.lr.ph37.split.split.us.preheader, label %.lr.ph.us

.lr.ph37.split.split.us.preheader:                ; preds = %.lr.ph37
  %.pre = load i32, ptr %5, align 8, !tbaa !148
  br label %.lr.ph37.split.split.us

.lr.ph.us:                                        ; preds = %.lr.ph37, %39
  %indvars.iv = phi i64 [ %indvars.iv.next, %39 ], [ %22, %.lr.ph37 ]
  %23 = load ptr, ptr %20, align 8, !tbaa !21
  %24 = getelementptr inbounds nuw ptr, ptr %23, i64 %indvars.iv
  %25 = load ptr, ptr %24, align 8, !tbaa !88
  %26 = load ptr, ptr %21, align 8, !tbaa !21
  br label %27

27:                                               ; preds = %.lr.ph.us, %32
  %.032.us = phi i32 [ 0, %.lr.ph.us ], [ %33, %32 ]
  %28 = zext i32 %.032.us to i64
  %29 = getelementptr inbounds nuw ptr, ptr %26, i64 %28
  %30 = load ptr, ptr %29, align 8, !tbaa !88
  %31 = icmp eq ptr %30, %25
  br i1 %31, label %._crit_edge.us, label %32

32:                                               ; preds = %27
  %33 = add nuw i32 %.032.us, 1
  %exitcond.not = icmp eq i32 %33, %6
  br i1 %exitcond.not, label %._crit_edge.us.thread, label %27

._crit_edge.us:                                   ; preds = %27
  %34 = icmp eq i32 %.032.us, %6
  br i1 %34, label %._crit_edge.us.thread, label %39

._crit_edge.us.thread:                            ; preds = %32, %._crit_edge.us
  %35 = load i32, ptr %5, align 8, !tbaa !148
  %36 = add i32 %35, 1
  store i32 %36, ptr %5, align 8, !tbaa !148
  %37 = zext i32 %35 to i64
  %38 = getelementptr inbounds nuw ptr, ptr %26, i64 %37
  store ptr %25, ptr %38, align 8, !tbaa !88
  br label %39

39:                                               ; preds = %._crit_edge.us.thread, %._crit_edge.us
  %indvars.iv.next = add nsw i64 %indvars.iv, -1
  %.not.us = icmp eq i64 %indvars.iv, 0
  br i1 %.not.us, label %._crit_edge38, label %.lr.ph.us

.lr.ph37.split.split.us:                          ; preds = %.lr.ph37.split.split.us.preheader, %.lr.ph37.split.split.us
  %40 = phi i32 [ %.pre, %.lr.ph37.split.split.us.preheader ], [ %45, %.lr.ph37.split.split.us ]
  %indvars.iv44 = phi i64 [ %22, %.lr.ph37.split.split.us.preheader ], [ %indvars.iv.next45, %.lr.ph37.split.split.us ]
  %41 = load ptr, ptr %20, align 8, !tbaa !21
  %42 = getelementptr inbounds nuw ptr, ptr %41, i64 %indvars.iv44
  %43 = load ptr, ptr %42, align 8, !tbaa !88
  %44 = load ptr, ptr %21, align 8, !tbaa !21
  %45 = add i32 %40, 1
  store i32 %45, ptr %5, align 8, !tbaa !148
  %46 = zext i32 %40 to i64
  %47 = getelementptr inbounds nuw ptr, ptr %44, i64 %46
  store ptr %43, ptr %47, align 8, !tbaa !88
  %indvars.iv.next45 = add nsw i64 %indvars.iv44, -1
  %.not.us39 = icmp eq i64 %indvars.iv44, 0
  br i1 %.not.us39, label %._crit_edge38, label %.lr.ph37.split.split.us

._crit_edge38:                                    ; preds = %39, %.lr.ph37.split.split.us, %18
  %48 = getelementptr inbounds nuw i8, ptr %0, i64 28
  %49 = load i32, ptr %48, align 4, !tbaa !22
  %50 = or i32 %49, 262144
  store i32 %50, ptr %48, align 4, !tbaa !22
  %51 = load i32, ptr %5, align 8, !tbaa !148
  %52 = icmp ult i32 %6, %51
  br i1 %52, label %.lr.ph, label %._crit_edge

.lr.ph:                                           ; preds = %._crit_edge38
  %53 = getelementptr inbounds nuw i8, ptr %0, i64 440
  %54 = zext i32 %6 to i64
  br label %55

55:                                               ; preds = %.lr.ph, %do_implement_interface.exit
  %56 = phi i32 [ %51, %.lr.ph ], [ %76, %do_implement_interface.exit ]
  %indvars.iv47 = phi i64 [ %54, %.lr.ph ], [ %indvars.iv.next48, %do_implement_interface.exit ]
  %57 = load ptr, ptr %53, align 8, !tbaa !21
  %indvars.iv.next48 = add nuw nsw i64 %indvars.iv47, 1
  %58 = getelementptr inbounds nuw ptr, ptr %57, i64 %indvars.iv47
  %59 = load ptr, ptr %58, align 8, !tbaa !88
  %60 = load i32, ptr %48, align 4, !tbaa !22
  %61 = and i32 %60, 1
  %.not.i = icmp eq i32 %61, 0
  br i1 %.not.i, label %62, label %do_implement_interface.exit

62:                                               ; preds = %55
  %63 = getelementptr inbounds nuw i8, ptr %59, i64 384
  %64 = load ptr, ptr %63, align 8, !tbaa !21
  %.not10.i = icmp eq ptr %64, null
  br i1 %.not10.i, label %do_implement_interface.exit, label %65

65:                                               ; preds = %62
  %66 = tail call i32 %64(ptr noundef nonnull %59, ptr noundef nonnull %0) #17
  %67 = icmp eq i32 %66, -1
  br i1 %67, label %68, label %.do_implement_interface.exit_crit_edge

.do_implement_interface.exit_crit_edge:           ; preds = %65
  %.pre50 = load i32, ptr %5, align 8, !tbaa !148
  br label %do_implement_interface.exit

68:                                               ; preds = %65
  %69 = tail call ptr @zend_get_object_type_case(ptr noundef nonnull %0, i1 noundef zeroext true) #17
  %70 = getelementptr inbounds nuw i8, ptr %0, i64 8
  %71 = load ptr, ptr %70, align 8, !tbaa !37
  %72 = getelementptr inbounds nuw i8, ptr %71, i64 24
  %73 = getelementptr inbounds nuw i8, ptr %59, i64 8
  %74 = load ptr, ptr %73, align 8, !tbaa !37
  %75 = getelementptr inbounds nuw i8, ptr %74, i64 24
  tail call void (i32, ptr, ...) @zend_error_noreturn(i32 noundef 16, ptr noundef nonnull @.str.72, ptr noundef %69, ptr noundef nonnull %72, ptr noundef nonnull %75) #19
  unreachable

do_implement_interface.exit:                      ; preds = %.do_implement_interface.exit_crit_edge, %55, %62
  %76 = phi i32 [ %.pre50, %.do_implement_interface.exit_crit_edge ], [ %56, %55 ], [ %56, %62 ]
  %77 = icmp ne ptr %0, %59
  tail call void @llvm.assume(i1 %77)
  %78 = zext i32 %76 to i64
  %79 = icmp samesign ult i64 %indvars.iv.next48, %78
  br i1 %79, label %55, label %._crit_edge

._crit_edge:                                      ; preds = %do_implement_interface.exit, %._crit_edge38
  ret void
}